target datalayout = "e-m:e-p270:32:32-p271:32:32-p272:64:64-i64:64-i128:128-f80:128-n8:16:32:64-S128"
target triple = "x86_64-pc-linux-gnu"

%struct.ref_iterator_vtable = type { ptr, ptr, ptr }
%struct.ref_iterator = type { ptr, ptr, ptr, ptr, i32 }
%struct.merge_ref_iterator = type { %struct.ref_iterator, ptr, ptr, ptr, ptr, ptr }

; Function Attrs: nounwind uwtable
define dso_local void @base_ref_iterator_free(ptr noundef %0) #0 {
  %2 = alloca ptr, align 8
  store ptr %0, ptr %2, align 8, !tbaa !4
  %3 = load ptr, ptr %2, align 8, !tbaa !4
  %4 = getelementptr inbounds nuw %struct.ref_iterator, ptr %3, i32 0, i32 0
  store ptr null, ptr %4, align 8, !tbaa !9
  %5 = load ptr, ptr %2, align 8, !tbaa !4
  call void @free(ptr noundef %5) #6
  ret void
}

; Function Attrs: nounwind uwtable
define dso_local i32 @ref_iterator_abort(ptr noundef %0) #0 {
  %2 = alloca ptr, align 8
  store ptr %0, ptr %2, align 8, !tbaa !4
  %3 = load ptr, ptr %2, align 8, !tbaa !4
  %4 = getelementptr inbounds nuw %struct.ref_iterator, ptr %3, i32 0, i32 0
  %5 = load ptr, ptr %4, align 8, !tbaa !9
  %6 = getelementptr inbounds nuw %struct.ref_iterator_vtable, ptr %5, i32 0, i32 2
  %7 = load ptr, ptr %6, align 8, !tbaa !19
  %8 = load ptr, ptr %2, align 8, !tbaa !4
  %9 = call i32 %7(ptr noundef %8)
  ret i32 %9
}

; Function Attrs: nounwind uwtable
define internal i32 @merge_ref_iterator_abort(ptr noundef %0) #0 {
  %2 = alloca ptr, align 8
  %3 = alloca ptr, align 8
  %4 = alloca i32, align 4
  store ptr %0, ptr %2, align 8, !tbaa !4
  call void @llvm.lifetime.start.p0(i64 8, ptr %3) #6
  %5 = load ptr, ptr %2, align 8, !tbaa !4
  store ptr %5, ptr %3, align 8, !tbaa !29
  call void @llvm.lifetime.start.p0(i64 4, ptr %4) #6
  store i32 -1, ptr %4, align 4, !tbaa !28
  %6 = load ptr, ptr %3, align 8, !tbaa !29
  %7 = getelementptr inbounds nuw %struct.merge_ref_iterator, ptr %6, i32 0, i32 1
  %8 = load ptr, ptr %7, align 8, !tbaa !31
  %9 = icmp ne ptr %8, null
  br i1 %9, label %10, label %18

10:                                               ; preds = %1
  %11 = load ptr, ptr %3, align 8, !tbaa !29
  %12 = getelementptr inbounds nuw %struct.merge_ref_iterator, ptr %11, i32 0, i32 1
  %13 = load ptr, ptr %12, align 8, !tbaa !31
  %14 = call i32 @ref_iterator_abort(ptr noundef %13)
  %15 = icmp ne i32 %14, -1
  br i1 %15, label %16, label %17

16:                                               ; preds = %10
  store i32 -2, ptr %4, align 4, !tbaa !28
  br label %17

17:                                               ; preds = %16, %10
  br label %18

18:                                               ; preds = %17, %1
  %19 = load ptr, ptr %3, align 8, !tbaa !29
  %20 = getelementptr inbounds nuw %struct.merge_ref_iterator, ptr %19, i32 0, i32 2
  %21 = load ptr, ptr %20, align 8, !tbaa !34
  %22 = icmp ne ptr %21, null
  br i1 %22, label %23, label %31

23:                                               ; preds = %18
  %24 = load ptr, ptr %3, align 8, !tbaa !29
  %25 = getelementptr inbounds nuw %struct.merge_ref_iterator, ptr %24, i32 0, i32 2
  %26 = load ptr, ptr %25, align 8, !tbaa !34
  %27 = call i32 @ref_iterator_abort(ptr noundef %26)
  %28 = icmp ne i32 %27, -1
  br i1 %28, label %29, label %30

29:                                               ; preds = %23
  store i32 -2, ptr %4, align 4, !tbaa !28
  br label %30

30:                                               ; preds = %29, %23
  br label %31

31:                                               ; preds = %30, %18
  %32 = load ptr, ptr %2, align 8, !tbaa !4
  call void @base_ref_iterator_free(ptr noundef %32)
  %33 = load i32, ptr %4, align 4, !tbaa !28
  call void @llvm.lifetime.end.p0(i64 4, ptr %4) #6
  call void @llvm.lifetime.end.p0(i64 8, ptr %3) #6
  ret i32 %33
}