; Function Attrs: nounwind uwtable
define internal range(i32 -2, 0) i32 @merge_ref_iterator_abort(ptr noundef captures(none) %0) #0 {
  %2 = getelementptr inbounds nuw i8, ptr %0, i64 40
  %3 = load ptr, ptr %2, align 8, !tbaa !18
  %.not = icmp eq ptr %3, null
  br i1 %.not, label %9, label %4

4:                                                ; preds = %1
  %5 = load ptr, ptr %3, align 8, !tbaa !4
  %6 = getelementptr inbounds nuw i8, ptr %5, i64 16
  %7 = load ptr, ptr %6, align 8, !tbaa !16
  %8 = tail call i32 %7(ptr noundef nonnull %3) #11
  %.not8 = icmp eq i32 %8, -1
  %spec.select = select i1 %.not8, i32 -1, i32 -2
  br label %9

9:                                                ; preds = %4, %1
  %.0 = phi i32 [ -1, %1 ], [ %spec.select, %4 ]
  %10 = getelementptr inbounds nuw i8, ptr %0, i64 48
  %11 = load ptr, ptr %10, align 8, !tbaa !22
  %.not9 = icmp eq ptr %11, null
  br i1 %.not9, label %17, label %12

12:                                               ; preds = %9
  %13 = load ptr, ptr %11, align 8, !tbaa !4
  %14 = getelementptr inbounds nuw i8, ptr %13, i64 16
  %15 = load ptr, ptr %14, align 8, !tbaa !16
  %16 = tail call i32 %15(ptr noundef nonnull %11) #11
  %.not10 = icmp eq i32 %16, -1
  %spec.select11 = select i1 %.not10, i32 %.0, i32 -2
  br label %17

17:                                               ; preds = %12, %9
  %.1 = phi i32 [ %.0, %9 ], [ %spec.select11, %12 ]
  tail call void @free(ptr noundef nonnull %0) #11
  ret i32 %.1
}